; ModuleID = 'bench/grpc/original/status_conversion.ll'
source_filename = "bench/grpc/original/status_conversion.ll"
target datalayout = "e-m:e-p270:32:32-p271:32:32-p272:64:64-i64:64-i128:128-f80:128-n8:16:32:64-S128"
target triple = "x86_64-pc-linux-gnu"

%"class.std::ios_base::Init" = type { i8 }

@_ZStL8__ioinit = internal global %"class.std::ios_base::Init" zeroinitializer, align 1
@__dso_handle = external hidden global i8
@_ZN9grpc_core9Timestamp25thread_local_time_source_E = external thread_local local_unnamed_addr global ptr, align 8
@llvm.global_ctors = appending global [1 x { i32, ptr, ptr }] [{ i32, ptr, ptr } { i32 65535, ptr @_GLOBAL__sub_I_status_conversion.cc, ptr null }]
@switch.table._Z26grpc_status_to_http2_error16grpc_status_code = private unnamed_addr constant [15 x i32] [i32 0, i32 8, i32 2, i32 2, i32 8, i32 2, i32 2, i32 12, i32 11, i32 2, i32 2, i32 2, i32 2, i32 2, i32 7], align 4

declare void @_ZNSt8ios_base4InitC1Ev(ptr noundef nonnull align 1 dereferenceable(1)) unnamed_addr #0

; Function Attrs: nounwind
declare void @_ZNSt8ios_base4InitD1Ev(ptr noundef nonnull align 1 dereferenceable(1)) unnamed_addr #1

; Function Attrs: nofree nounwind
declare i32 @__cxa_atexit(ptr, ptr, ptr) local_unnamed_addr #2

; Function Attrs: mustprogress nofree norecurse nosync nounwind willreturn memory(none) uwtable
define noundef range(i32 0, 13) i32 @_Z26grpc_status_to_http2_error16grpc_status_code(i32 noundef %0) local_unnamed_addr #3 {
  %2 = icmp ult i32 %0, 15
  br i1 %2, label %switch.lookup, label %4

switch.lookup:                                    ; preds = %1
  %3 = zext nneg i32 %0 to i64
  %switch.gep = getelementptr inbounds nuw [15 x i32], ptr @switch.table._Z26grpc_status_to_http2_error16grpc_status_code, i64 0, i64 %3
  %switch.load = load i32, ptr %switch.gep, align 4
  br label %4

4:                                                ; preds = %1, %switch.lookup
  %.0 = phi i32 [ %switch.load, %switch.lookup ], [ 2, %1 ]
  ret i32 %.0
}

; Function Attrs: uwtable
define noundef range(i32 1, 15) i32 @_Z31grpc_http2_error_to_grpc_status21grpc_http2_error_codeN9grpc_core9TimestampE(i32 noundef %0, i64 %1) local_unnamed_addr #4 {
  switch i32 %0, label %14 [
    i32 7, label %13
    i32 8, label %3
    i32 11, label %15
    i32 12, label %12
  ]

3:                                                ; preds = %2
  %.not.i.i = icmp eq ptr @_ZTHN9grpc_core9Timestamp25thread_local_time_source_E, null
  br i1 %.not.i.i, label %_ZN9grpc_core9Timestamp3NowEv.exit, label %4

4:                                                ; preds = %3
  tail call void @_ZTHN9grpc_core9Timestamp25thread_local_time_source_E()
  br label %_ZN9grpc_core9Timestamp3NowEv.exit

_ZN9grpc_core9Timestamp3NowEv.exit:               ; preds = %3, %4
  %5 = tail call noundef align 8 ptr @llvm.threadlocal.address.p0(ptr align 8 @_ZN9grpc_core9Timestamp25thread_local_time_source_E)
  %6 = load ptr, ptr %5, align 8, !tbaa !3
  %7 = load ptr, ptr %6, align 8, !tbaa !8
  %8 = load ptr, ptr %7, align 8
  %9 = tail call i64 %8(ptr noundef nonnull align 8 dereferenceable(8) %6)
  %10 = icmp sgt i64 %9, %1
  %11 = select i1 %10, i32 4, i32 1
  br label %15

12:                                               ; preds = %2
  br label %15

13:                                               ; preds = %2
  br label %15

14:                                               ; preds = %2
  br label %15

15:                                               ; preds = %2, %14, %13, %12, %_ZN9grpc_core9Timestamp3NowEv.exit
  %.0 = phi i32 [ 13, %14 ], [ 14, %13 ], [ 7, %12 ], [ %11, %_ZN9grpc_core9Timestamp3NowEv.exit ], [ 8, %2 ]
  ret i32 %.0
}

; Function Attrs: mustprogress nofree norecurse nosync nounwind willreturn memory(none) uwtable
define noundef range(i32 0, 17) i32 @_Z32grpc_http2_status_to_grpc_statusi(i32 noundef %0) local_unnamed_addr #3 {
  switch i32 %0, label %7 [
    i32 200, label %8
    i32 400, label %2
    i32 401, label %3
    i32 403, label %4
    i32 404, label %5
    i32 429, label %6
    i32 502, label %6
    i32 503, label %6
    i32 504, label %6
  ]

2:                                                ; preds = %1
  br label %8

3:                                                ; preds = %1
  br label %8

4:                                                ; preds = %1
  br label %8

5:                                                ; preds = %1
  br label %8

6:                                                ; preds = %1, %1, %1, %1
  br label %8

7:                                                ; preds = %1
  br label %8

8:                                                ; preds = %1, %7, %6, %5, %4, %3, %2
  %.0 = phi i32 [ 2, %7 ], [ 14, %6 ], [ 12, %5 ], [ 7, %4 ], [ 16, %3 ], [ 13, %2 ], [ 0, %1 ]
  ret i32 %.0
}

; Function Attrs: mustprogress nofree norecurse nosync nounwind willreturn memory(none) uwtable
define noundef i32 @_Z27grpc_status_to_http2_status16grpc_status_code(i32 noundef %0) local_unnamed_addr #3 {
  ret i32 200
}

; Function Attrs: uwtable
define internal void @_GLOBAL__sub_I_status_conversion.cc() #5 section ".text.startup" {
  tail call void @_ZNSt8ios_base4InitC1Ev(ptr noundef nonnull align 1 dereferenceable(1) @_ZStL8__ioinit)
  %1 = tail call i32 @__cxa_atexit(ptr nonnull @_ZNSt8ios_base4InitD1Ev, ptr nonnull @_ZStL8__ioinit, ptr nonnull @__dso_handle) #7
  ret void
}

declare extern_weak void @_ZTHN9grpc_core9Timestamp25thread_local_time_source_E() #0

; Function Attrs: mustprogress nocallback nofree nosync nounwind speculatable willreturn memory(none)
declare nonnull ptr @llvm.threadlocal.address.p0(ptr nonnull) #6


!llvm.module.flags = !{!0, !1, !2}

!0 = !{i32 1, !"wchar_size", i32 4}
!1 = !{i32 8, !"PIC Level", i32 2}
!2 = !{i32 7, !"uwtable", i32 2}
!3 = !{!4, !4, i64 0}
!4 = !{!"p1 _ZTSN9grpc_core9Timestamp6SourceE", !5, i64 0}
!5 = !{!"any pointer", !6, i64 0}
!6 = !{!"omnipotent char", !7, i64 0}
!7 = !{!"Simple C++ TBAA"}
!8 = !{!9, !9, i64 0}
!9 = !{!"vtable pointer", !7, i64 0}
